target datalayout = "e-m:e-p270:32:32-p271:32:32-p272:64:64-i64:64-i128:128-f80:128-n8:16:32:64-S128"
target triple = "x86_64-pc-linux-gnu"

%struct.RBasic = type { i64, i64 }
%struct.RData = type { %struct.RBasic, ptr, ptr, ptr }
%struct.rb_proc_t = type { %struct.rb_block, i8 }
%struct.rb_block = type { %union.anon.12, i32 }
%union.anon.12 = type { %struct.rb_captured_block }
%struct.rb_captured_block = type { i64, ptr, %union.anon.13 }
%union.anon.13 = type { ptr }
%struct.rb_iseq_struct = type { i64, i64, ptr, %union.anon.16 }
%union.anon.16 = type { %struct.anon.17 }
%struct.anon.17 = type { i64, i32 }
%struct.rb_iseq_constant_body = type { i32, i32, ptr, %struct.anon.19, %struct.rb_iseq_location_struct, %struct.iseq_insn_info, ptr, ptr, ptr, ptr, ptr, ptr, %struct.anon.20, i32, i32, i32, i32, i32, i32, i32, i32, i8, %union.anon.21, ptr, ptr, ptr, i64, ptr, i64, ptr, i64 }
%struct.anon.19 = type { %struct.anon, i32, i32, i32, i32, i32, i32, i32, ptr, ptr }
%struct.anon = type { i16, [2 x i8] }
%struct.rb_iseq_location_struct = type { i64, i64, i64, i32, i32, %struct.rb_code_location_struct }
%struct.rb_code_location_struct = type { %struct.rb_code_position_struct, %struct.rb_code_position_struct }
%struct.rb_code_position_struct = type { i32, i32 }
%struct.iseq_insn_info = type { ptr, ptr, i32, ptr }
%struct.anon.20 = type { i64, i64, i64, i64, ptr }
%union.anon.21 = type { ptr }
%struct.rb_method_entry_struct = type { i64, i64, ptr, i64, i64 }
%struct.rb_method_definition_struct = type { i64, %union.anon.25, i64, i64 }
%union.anon.25 = type { %struct.rb_method_cfunc_struct }
%struct.rb_method_cfunc_struct = type { ptr, ptr, i32 }
%struct.rb_method_iseq_struct = type { ptr, ptr }
%struct.rb_method_bmethod_struct = type { i64, ptr, i64 }
%struct.rb_method_alias_struct = type { ptr }
%struct.rb_iseq_param_keyword = type { i32, i32, i32, i32, ptr, ptr }
%struct.rb_method_optimized = type { i32, i32 }

@rb_eArgError = external global i64, align 8
@.str.71 = private unnamed_addr constant [25 x i8] c"too many arguments (%lu)\00", align 1
@.str.72 = private unnamed_addr constant [57 x i8] c"method_def_min_max_arity: invalid method entry type (%d)\00", align 1

; Function Attrs: inlinehint nounwind sspstrong uwtable
define internal i32 @rb_iseq_min_max_arity(ptr noundef %0, ptr noundef %1) #3 {
  %3 = alloca ptr, align 8
  %4 = alloca ptr, align 8
  store ptr %0, ptr %3, align 8, !tbaa !58
  store ptr %1, ptr %4, align 8, !tbaa !50
  %5 = load ptr, ptr %3, align 8, !tbaa !58
  %6 = getelementptr inbounds nuw %struct.rb_iseq_struct, ptr %5, i32 0, i32 2
  %7 = load ptr, ptr %6, align 8, !tbaa !60
  %8 = getelementptr inbounds nuw %struct.rb_iseq_constant_body, ptr %7, i32 0, i32 3
  %9 = getelementptr inbounds nuw %struct.anon.19, ptr %8, i32 0, i32 0
  %10 = load i16, ptr %9, align 8
  %11 = lshr i16 %10, 2
  %12 = and i16 %11, 1
  %13 = zext i16 %12 to i32
  %14 = icmp eq i32 %13, 0
  br i1 %14, label %15, label %72

15:                                               ; preds = %2
  %16 = load ptr, ptr %3, align 8, !tbaa !58
  %17 = getelementptr inbounds nuw %struct.rb_iseq_struct, ptr %16, i32 0, i32 2
  %18 = load ptr, ptr %17, align 8, !tbaa !60
  %19 = getelementptr inbounds nuw %struct.rb_iseq_constant_body, ptr %18, i32 0, i32 3
  %20 = getelementptr inbounds nuw %struct.anon.19, ptr %19, i32 0, i32 2
  %21 = load i32, ptr %20, align 8, !tbaa !142
  %22 = load ptr, ptr %3, align 8, !tbaa !58
  %23 = getelementptr inbounds nuw %struct.rb_iseq_struct, ptr %22, i32 0, i32 2
  %24 = load ptr, ptr %23, align 8, !tbaa !60
  %25 = getelementptr inbounds nuw %struct.rb_iseq_constant_body, ptr %24, i32 0, i32 3
  %26 = getelementptr inbounds nuw %struct.anon.19, ptr %25, i32 0, i32 3
  %27 = load i32, ptr %26, align 4, !tbaa !143
  %28 = add i32 %21, %27
  %29 = load ptr, ptr %3, align 8, !tbaa !58
  %30 = getelementptr inbounds nuw %struct.rb_iseq_struct, ptr %29, i32 0, i32 2
  %31 = load ptr, ptr %30, align 8, !tbaa !60
  %32 = getelementptr inbounds nuw %struct.rb_iseq_constant_body, ptr %31, i32 0, i32 3
  %33 = getelementptr inbounds nuw %struct.anon.19, ptr %32, i32 0, i32 6
  %34 = load i32, ptr %33, align 8, !tbaa !144
  %35 = add i32 %28, %34
  %36 = load ptr, ptr %3, align 8, !tbaa !58
  %37 = getelementptr inbounds nuw %struct.rb_iseq_struct, ptr %36, i32 0, i32 2
  %38 = load ptr, ptr %37, align 8, !tbaa !60
  %39 = getelementptr inbounds nuw %struct.rb_iseq_constant_body, ptr %38, i32 0, i32 3
  %40 = getelementptr inbounds nuw %struct.anon.19, ptr %39, i32 0, i32 0
  %41 = load i16, ptr %40, align 8
  %42 = lshr i16 %41, 4
  %43 = and i16 %42, 1
  %44 = zext i16 %43 to i32
  %45 = icmp eq i32 %44, 1
  br i1 %45, label %68, label %46

46:                                               ; preds = %15
  %47 = load ptr, ptr %3, align 8, !tbaa !58
  %48 = getelementptr inbounds nuw %struct.rb_iseq_struct, ptr %47, i32 0, i32 2
  %49 = load ptr, ptr %48, align 8, !tbaa !60
  %50 = getelementptr inbounds nuw %struct.rb_iseq_constant_body, ptr %49, i32 0, i32 3
  %51 = getelementptr inbounds nuw %struct.anon.19, ptr %50, i32 0, i32 0
  %52 = load i16, ptr %51, align 8
  %53 = lshr i16 %52, 5
  %54 = and i16 %53, 1
  %55 = zext i16 %54 to i32
  %56 = icmp eq i32 %55, 1
  br i1 %56, label %68, label %57

57:                                               ; preds = %46
  %58 = load ptr, ptr %3, align 8, !tbaa !58
  %59 = getelementptr inbounds nuw %struct.rb_iseq_struct, ptr %58, i32 0, i32 2
  %60 = load ptr, ptr %59, align 8, !tbaa !60
  %61 = getelementptr inbounds nuw %struct.rb_iseq_constant_body, ptr %60, i32 0, i32 3
  %62 = getelementptr inbounds nuw %struct.anon.19, ptr %61, i32 0, i32 0
  %63 = load i16, ptr %62, align 8
  %64 = lshr i16 %63, 13
  %65 = and i16 %64, 1
  %66 = zext i16 %65 to i32
  %67 = icmp eq i32 %66, 1
  br label %68

68:                                               ; preds = %57, %46, %15
  %69 = phi i1 [ true, %46 ], [ true, %15 ], [ %67, %57 ]
  %70 = zext i1 %69 to i32
  %71 = add i32 %35, %70
  br label %73

72:                                               ; preds = %2
  br label %73

73:                                               ; preds = %72, %68
  %74 = phi i32 [ %71, %68 ], [ -1, %72 ]
  %75 = load ptr, ptr %4, align 8, !tbaa !50
  store i32 %74, ptr %75, align 4, !tbaa !36
  %76 = load ptr, ptr %3, align 8, !tbaa !58
  %77 = getelementptr inbounds nuw %struct.rb_iseq_struct, ptr %76, i32 0, i32 2
  %78 = load ptr, ptr %77, align 8, !tbaa !60
  %79 = getelementptr inbounds nuw %struct.rb_iseq_constant_body, ptr %78, i32 0, i32 3
  %80 = getelementptr inbounds nuw %struct.anon.19, ptr %79, i32 0, i32 2
  %81 = load i32, ptr %80, align 8, !tbaa !142
  %82 = load ptr, ptr %3, align 8, !tbaa !58
  %83 = getelementptr inbounds nuw %struct.rb_iseq_struct, ptr %82, i32 0, i32 2
  %84 = load ptr, ptr %83, align 8, !tbaa !60
  %85 = getelementptr inbounds nuw %struct.rb_iseq_constant_body, ptr %84, i32 0, i32 3
  %86 = getelementptr inbounds nuw %struct.anon.19, ptr %85, i32 0, i32 6
  %87 = load i32, ptr %86, align 8, !tbaa !144
  %88 = add i32 %81, %87
  %89 = load ptr, ptr %3, align 8, !tbaa !58
  %90 = getelementptr inbounds nuw %struct.rb_iseq_struct, ptr %89, i32 0, i32 2
  %91 = load ptr, ptr %90, align 8, !tbaa !60
  %92 = getelementptr inbounds nuw %struct.rb_iseq_constant_body, ptr %91, i32 0, i32 3
  %93 = getelementptr inbounds nuw %struct.anon.19, ptr %92, i32 0, i32 0
  %94 = load i16, ptr %93, align 8
  %95 = lshr i16 %94, 4
  %96 = and i16 %95, 1
  %97 = zext i16 %96 to i32
  %98 = icmp ne i32 %97, 0
  br i1 %98, label %99, label %109

99:                                               ; preds = %73
  %100 = load ptr, ptr %3, align 8, !tbaa !58
  %101 = getelementptr inbounds nuw %struct.rb_iseq_struct, ptr %100, i32 0, i32 2
  %102 = load ptr, ptr %101, align 8, !tbaa !60
  %103 = getelementptr inbounds nuw %struct.rb_iseq_constant_body, ptr %102, i32 0, i32 3
  %104 = getelementptr inbounds nuw %struct.anon.19, ptr %103, i32 0, i32 9
  %105 = load ptr, ptr %104, align 8, !tbaa !145
  %106 = getelementptr inbounds nuw %struct.rb_iseq_param_keyword, ptr %105, i32 0, i32 1
  %107 = load i32, ptr %106, align 4, !tbaa !146
  %108 = icmp sgt i32 %107, 0
  br label %109

109:                                              ; preds = %99, %73
  %110 = phi i1 [ false, %73 ], [ %108, %99 ]
  %111 = zext i1 %110 to i32
  %112 = add i32 %88, %111
  ret i32 %112
}

; Function Attrs: inlinehint nounwind sspstrong uwtable
define internal ptr @rb_iseq_check(ptr noundef %0) #3 {
  %2 = alloca ptr, align 8
  store ptr %0, ptr %2, align 8, !tbaa !58
  %3 = load ptr, ptr %2, align 8, !tbaa !58
  ret ptr %3
}

; Function Attrs: nounwind sspstrong uwtable
define internal i32 @rb_proc_min_max_arity(i64 noundef %0, ptr noundef %1) #0 {
  %3 = alloca i64, align 8
  %4 = alloca ptr, align 8
  %5 = alloca ptr, align 8
  store i64 %0, ptr %3, align 8, !tbaa !7
  store ptr %1, ptr %4, align 8, !tbaa !50
  call void @llvm.lifetime.start.p0(i64 8, ptr %5) #25
  %6 = load i64, ptr %3, align 8, !tbaa !7
  %7 = inttoptr i64 %6 to ptr
  %8 = getelementptr inbounds nuw %struct.RData, ptr %7, i32 0, i32 3
  %9 = load ptr, ptr %8, align 8, !tbaa !17
  store ptr %9, ptr %5, align 8, !tbaa !11
  %10 = load ptr, ptr %5, align 8, !tbaa !11
  %11 = getelementptr inbounds nuw %struct.rb_proc_t, ptr %10, i32 0, i32 0
  %12 = load ptr, ptr %4, align 8, !tbaa !50
  %13 = call i32 @rb_vm_block_min_max_arity(ptr noundef %11, ptr noundef %12)
  call void @llvm.lifetime.end.p0(i64 8, ptr %5) #25
  ret i32 %13
}

; Function Attrs: inlinehint nounwind sspstrong uwtable
define internal i32 @check_argc(i64 noundef %0) #3 {
  %2 = alloca i64, align 8
  store i64 %0, ptr %2, align 8, !tbaa !7
  %3 = load i64, ptr %2, align 8, !tbaa !7
  %4 = icmp sgt i64 %3, 2147483647
  br i1 %4, label %8, label %5

5:                                                ; preds = %1
  %6 = load i64, ptr %2, align 8, !tbaa !7
  %7 = icmp slt i64 %6, 0
  br i1 %7, label %8, label %11

8:                                                ; preds = %5, %1
  %9 = load i64, ptr @rb_eArgError, align 8, !tbaa !7
  %10 = load i64, ptr %2, align 8, !tbaa !7
  call void (i64, ptr, ...) @rb_raise(i64 noundef %9, ptr noundef @.str.71, i64 noundef %10) #27
  unreachable

11:                                               ; preds = %5
  %12 = load i64, ptr %2, align 8, !tbaa !7
  %13 = trunc i64 %12 to i32
  ret i32 %13
}

; Function Attrs: nounwind sspstrong uwtable
define internal i32 @method_def_min_max_arity(ptr noundef %0, ptr noundef %1) #0 {
  %3 = alloca i32, align 4
  %4 = alloca ptr, align 8
  %5 = alloca ptr, align 8
  store ptr %0, ptr %4, align 8, !tbaa !110
  store ptr %1, ptr %5, align 8, !tbaa !50
  br label %6

6:                                                ; preds = %38, %2
  %7 = load ptr, ptr %4, align 8, !tbaa !110
  %8 = icmp ne ptr %7, null
  br i1 %8, label %11, label %9

9:                                                ; preds = %6
  %10 = load ptr, ptr %5, align 8, !tbaa !50
  store i32 0, ptr %10, align 4, !tbaa !36
  store i32 0, ptr %3, align 4
  br label %88

11:                                               ; preds = %6
  %12 = load ptr, ptr %4, align 8, !tbaa !110
  %13 = load i64, ptr %12, align 8
  %14 = and i64 %13, 15
  %15 = trunc i64 %14 to i32
  switch i32 %15, label %83 [
    i32 1, label %16
    i32 5, label %32
    i32 2, label %34
    i32 3, label %36
    i32 6, label %38
    i32 4, label %45
    i32 0, label %52
    i32 7, label %60
    i32 8, label %60
    i32 10, label %62
    i32 9, label %64
    i32 11, label %81
  ]

16:                                               ; preds = %11
  %17 = load ptr, ptr %4, align 8, !tbaa !110
  %18 = getelementptr inbounds nuw %struct.rb_method_definition_struct, ptr %17, i32 0, i32 1
  %19 = getelementptr inbounds nuw %struct.rb_method_cfunc_struct, ptr %18, i32 0, i32 2
  %20 = load i32, ptr %19, align 8, !tbaa !34
  %21 = icmp slt i32 %20, 0
  br i1 %21, label %22, label %24

22:                                               ; preds = %16
  %23 = load ptr, ptr %5, align 8, !tbaa !50
  store i32 -1, ptr %23, align 4, !tbaa !36
  store i32 0, ptr %3, align 4
  br label %88

24:                                               ; preds = %16
  %25 = load ptr, ptr %4, align 8, !tbaa !110
  %26 = getelementptr inbounds nuw %struct.rb_method_definition_struct, ptr %25, i32 0, i32 1
  %27 = getelementptr inbounds nuw %struct.rb_method_cfunc_struct, ptr %26, i32 0, i32 2
  %28 = load i32, ptr %27, align 8, !tbaa !34
  %29 = sext i32 %28 to i64
  %30 = call i32 @check_argc(i64 noundef %29)
  %31 = load ptr, ptr %5, align 8, !tbaa !50
  store i32 %30, ptr %31, align 4, !tbaa !36
  store i32 %30, ptr %3, align 4
  br label %88

32:                                               ; preds = %11
  %33 = load ptr, ptr %5, align 8, !tbaa !50
  store i32 -1, ptr %33, align 4, !tbaa !36
  store i32 0, ptr %3, align 4
  br label %88

34:                                               ; preds = %11
  %35 = load ptr, ptr %5, align 8, !tbaa !50
  store i32 1, ptr %35, align 4, !tbaa !36
  store i32 1, ptr %3, align 4
  br label %88

36:                                               ; preds = %11
  %37 = load ptr, ptr %5, align 8, !tbaa !50
  store i32 0, ptr %37, align 4, !tbaa !36
  store i32 0, ptr %3, align 4
  br label %88

38:                                               ; preds = %11
  %39 = load ptr, ptr %4, align 8, !tbaa !110
  %40 = getelementptr inbounds nuw %struct.rb_method_definition_struct, ptr %39, i32 0, i32 1
  %41 = getelementptr inbounds nuw %struct.rb_method_alias_struct, ptr %40, i32 0, i32 0
  %42 = load ptr, ptr %41, align 8, !tbaa !34
  %43 = getelementptr inbounds nuw %struct.rb_method_entry_struct, ptr %42, i32 0, i32 2
  %44 = load ptr, ptr %43, align 8, !tbaa !109
  store ptr %44, ptr %4, align 8, !tbaa !110
  br label %6

45:                                               ; preds = %11
  %46 = load ptr, ptr %4, align 8, !tbaa !110
  %47 = getelementptr inbounds nuw %struct.rb_method_definition_struct, ptr %46, i32 0, i32 1
  %48 = getelementptr inbounds nuw %struct.rb_method_bmethod_struct, ptr %47, i32 0, i32 0
  %49 = load i64, ptr %48, align 8, !tbaa !34
  %50 = load ptr, ptr %5, align 8, !tbaa !50
  %51 = call i32 @rb_proc_min_max_arity(i64 noundef %49, ptr noundef %50)
  store i32 %51, ptr %3, align 4
  br label %88

52:                                               ; preds = %11
  %53 = load ptr, ptr %4, align 8, !tbaa !110
  %54 = getelementptr inbounds nuw %struct.rb_method_definition_struct, ptr %53, i32 0, i32 1
  %55 = getelementptr inbounds nuw %struct.rb_method_iseq_struct, ptr %54, i32 0, i32 0
  %56 = load ptr, ptr %55, align 8, !tbaa !34
  %57 = call ptr @rb_iseq_check(ptr noundef %56)
  %58 = load ptr, ptr %5, align 8, !tbaa !50
  %59 = call i32 @rb_iseq_min_max_arity(ptr noundef %57, ptr noundef %58)
  store i32 %59, ptr %3, align 4
  br label %88

60:                                               ; preds = %11, %11
  %61 = load ptr, ptr %5, align 8, !tbaa !50
  store i32 0, ptr %61, align 4, !tbaa !36
  store i32 0, ptr %3, align 4
  br label %88

62:                                               ; preds = %11
  %63 = load ptr, ptr %5, align 8, !tbaa !50
  store i32 -1, ptr %63, align 4, !tbaa !36
  store i32 0, ptr %3, align 4
  br label %88

64:                                               ; preds = %11
  %65 = load ptr, ptr %4, align 8, !tbaa !110
  %66 = getelementptr inbounds nuw %struct.rb_method_definition_struct, ptr %65, i32 0, i32 1
  %67 = getelementptr inbounds nuw %struct.rb_method_optimized, ptr %66, i32 0, i32 0
  %68 = load i32, ptr %67, align 8, !tbaa !34
  switch i32 %68, label %79 [
    i32 0, label %69
    i32 1, label %71
    i32 2, label %73
    i32 3, label %75
    i32 4, label %77
  ]

69:                                               ; preds = %64
  %70 = load ptr, ptr %5, align 8, !tbaa !50
  store i32 -1, ptr %70, align 4, !tbaa !36
  store i32 0, ptr %3, align 4
  br label %88

71:                                               ; preds = %64
  %72 = load ptr, ptr %5, align 8, !tbaa !50
  store i32 -1, ptr %72, align 4, !tbaa !36
  store i32 0, ptr %3, align 4
  br label %88

73:                                               ; preds = %64
  %74 = load ptr, ptr %5, align 8, !tbaa !50
  store i32 -1, ptr %74, align 4, !tbaa !36
  store i32 0, ptr %3, align 4
  br label %88

75:                                               ; preds = %64
  %76 = load ptr, ptr %5, align 8, !tbaa !50
  store i32 0, ptr %76, align 4, !tbaa !36
  store i32 0, ptr %3, align 4
  br label %88

77:                                               ; preds = %64
  %78 = load ptr, ptr %5, align 8, !tbaa !50
  store i32 1, ptr %78, align 4, !tbaa !36
  store i32 1, ptr %3, align 4
  br label %88

79:                                               ; preds = %64
  br label %80

80:                                               ; preds = %79
  br label %83

81:                                               ; preds = %11
  %82 = load ptr, ptr %5, align 8, !tbaa !50
  store i32 -1, ptr %82, align 4, !tbaa !36
  store i32 0, ptr %3, align 4
  br label %88

83:                                               ; preds = %11, %80
  %84 = load ptr, ptr %4, align 8, !tbaa !110
  %85 = load i64, ptr %84, align 8
  %86 = and i64 %85, 15
  %87 = trunc i64 %86 to i32
  call void (ptr, ...) @rb_bug(ptr noundef @.str.72, i32 noundef %87) #30
  unreachable

88:                                               ; preds = %81, %77, %75, %73, %71, %69, %62, %60, %52, %45, %36, %34, %32, %24, %22, %9
  %89 = load i32, ptr %3, align 4
  ret i32 %89
}