; Function Attrs: nounwind sspstrong uwtable
define internal fastcc i32 @method_def_min_max_arity(ptr noundef readonly captures(address_is_null) %0, ptr noundef writeonly captures(none) %1) unnamed_addr #0 {
  %.not48 = icmp eq ptr %0, null
  br i1 %.not48, label %._crit_edge, label %.lr.ph

._crit_edge:                                      ; preds = %14, %2
  store i32 0, ptr %1, align 4, !tbaa !41
  br label %76

.lr.ph:                                           ; preds = %2, %14
  %.02549 = phi ptr [ %18, %14 ], [ %0, %2 ]
  %3 = load i64, ptr %.02549, align 8
  %4 = trunc i64 %3 to i32
  %5 = and i32 %4, 15
  switch i32 %5, label %.loopexit [
    i32 1, label %6
    i32 5, label %11
    i32 2, label %12
    i32 3, label %13
    i32 6, label %14
    i32 4, label %19
    i32 0, label %26
    i32 7, label %65
    i32 8, label %65
    i32 10, label %66
    i32 9, label %67
    i32 11, label %75
  ]

6:                                                ; preds = %.lr.ph
  %7 = getelementptr inbounds nuw i8, ptr %.02549, i64 24
  %8 = load i32, ptr %7, align 8, !tbaa !35
  %9 = icmp slt i32 %8, 0
  br i1 %9, label %10, label %check_argc.exit

10:                                               ; preds = %6
  store i32 -1, ptr %1, align 4, !tbaa !41
  br label %76

check_argc.exit:                                  ; preds = %6
  store i32 %8, ptr %1, align 4, !tbaa !41
  br label %76

11:                                               ; preds = %.lr.ph
  store i32 -1, ptr %1, align 4, !tbaa !41
  br label %76

12:                                               ; preds = %.lr.ph
  store i32 1, ptr %1, align 4, !tbaa !41
  br label %76

13:                                               ; preds = %.lr.ph
  store i32 0, ptr %1, align 4, !tbaa !41
  br label %76

14:                                               ; preds = %.lr.ph
  %15 = getelementptr inbounds nuw i8, ptr %.02549, i64 8
  %16 = load ptr, ptr %15, align 8, !tbaa !35
  %17 = getelementptr inbounds nuw i8, ptr %16, i64 16
  %18 = load ptr, ptr %17, align 8, !tbaa !77
  %.not = icmp eq ptr %18, null
  br i1 %.not, label %._crit_edge, label %.lr.ph

19:                                               ; preds = %.lr.ph
  %20 = getelementptr inbounds nuw i8, ptr %.02549, i64 8
  %21 = load i64, ptr %20, align 8, !tbaa !35
  %22 = inttoptr i64 %21 to ptr
  %23 = getelementptr inbounds nuw i8, ptr %22, i64 32
  %24 = load ptr, ptr %23, align 8, !tbaa !7
  %25 = tail call fastcc i32 @rb_vm_block_min_max_arity(ptr noundef %24, ptr noundef %1)
  br label %76

26:                                               ; preds = %.lr.ph
  %27 = getelementptr inbounds nuw i8, ptr %.02549, i64 8
  %28 = load ptr, ptr %27, align 8, !tbaa !35
  %29 = getelementptr i8, ptr %28, i64 16
  %.val = load ptr, ptr %29, align 8, !tbaa !48
  %30 = getelementptr inbounds nuw i8, ptr %.val, i64 16
  %31 = load i16, ptr %30, align 8
  %32 = and i16 %31, 4
  %33 = icmp eq i16 %32, 0
  br i1 %33, label %34, label %47

34:                                               ; preds = %26
  %35 = getelementptr inbounds nuw i8, ptr %.val, i64 24
  %36 = load i32, ptr %35, align 8, !tbaa !51
  %37 = getelementptr inbounds nuw i8, ptr %.val, i64 28
  %38 = load i32, ptr %37, align 4, !tbaa !69
  %39 = getelementptr inbounds nuw i8, ptr %.val, i64 40
  %40 = load i32, ptr %39, align 8, !tbaa !70
  %41 = and i16 %31, 8240
  %42 = icmp ne i16 %41, 0
  %43 = zext i1 %42 to i32
  %44 = add i32 %36, %43
  %45 = add i32 %44, %38
  %46 = add i32 %45, %40
  br label %47

47:                                               ; preds = %34, %26
  %48 = phi i32 [ %46, %34 ], [ -1, %26 ]
  store i32 %48, ptr %1, align 4, !tbaa !41
  %49 = getelementptr inbounds nuw i8, ptr %.val, i64 24
  %50 = load i32, ptr %49, align 8, !tbaa !51
  %51 = getelementptr inbounds nuw i8, ptr %.val, i64 40
  %52 = load i32, ptr %51, align 8, !tbaa !70
  %53 = load i16, ptr %30, align 8
  %54 = and i16 %53, 16
  %.not13.i = icmp eq i16 %54, 0
  br i1 %.not13.i, label %rb_iseq_min_max_arity.exit, label %55

55:                                               ; preds = %47
  %56 = getelementptr inbounds nuw i8, ptr %.val, i64 56
  %57 = load ptr, ptr %56, align 8, !tbaa !71
  %58 = getelementptr inbounds nuw i8, ptr %57, i64 4
  %59 = load i32, ptr %58, align 4, !tbaa !72
  %60 = icmp sgt i32 %59, 0
  %61 = zext i1 %60 to i32
  br label %rb_iseq_min_max_arity.exit

rb_iseq_min_max_arity.exit:                       ; preds = %47, %55
  %62 = phi i32 [ 0, %47 ], [ %61, %55 ]
  %63 = add i32 %52, %50
  %64 = add i32 %63, %62
  br label %76

65:                                               ; preds = %.lr.ph, %.lr.ph
  store i32 0, ptr %1, align 4, !tbaa !41
  br label %76

66:                                               ; preds = %.lr.ph
  store i32 -1, ptr %1, align 4, !tbaa !41
  br label %76

67:                                               ; preds = %.lr.ph
  %68 = getelementptr inbounds nuw i8, ptr %.02549, i64 8
  %69 = load i32, ptr %68, align 8, !tbaa !35
  switch i32 %69, label %.loopexit [
    i32 0, label %70
    i32 1, label %71
    i32 2, label %72
    i32 3, label %73
    i32 4, label %74
  ]

70:                                               ; preds = %67
  store i32 -1, ptr %1, align 4, !tbaa !41
  br label %76

71:                                               ; preds = %67
  store i32 -1, ptr %1, align 4, !tbaa !41
  br label %76

72:                                               ; preds = %67
  store i32 -1, ptr %1, align 4, !tbaa !41
  br label %76

73:                                               ; preds = %67
  store i32 0, ptr %1, align 4, !tbaa !41
  br label %76

74:                                               ; preds = %67
  store i32 1, ptr %1, align 4, !tbaa !41
  br label %76

75:                                               ; preds = %.lr.ph
  store i32 -1, ptr %1, align 4, !tbaa !41
  br label %76

.loopexit:                                        ; preds = %.lr.ph, %67
  tail call void (ptr, ...) @rb_bug(ptr noundef nonnull @.str.72, i32 noundef %5) #23
  unreachable

76:                                               ; preds = %75, %74, %73, %72, %71, %70, %66, %65, %rb_iseq_min_max_arity.exit, %19, %13, %12, %11, %check_argc.exit, %10, %._crit_edge
  %.0 = phi i32 [ 0, %75 ], [ 1, %74 ], [ 0, %73 ], [ 0, %72 ], [ 0, %71 ], [ 0, %70 ], [ 0, %66 ], [ 0, %65 ], [ %64, %rb_iseq_min_max_arity.exit ], [ %25, %19 ], [ 0, %13 ], [ 1, %12 ], [ 0, %11 ], [ 0, %10 ], [ %8, %check_argc.exit ], [ 0, %._crit_edge ]
  ret i32 %.0
}